target datalayout = "e-m:e-p270:32:32-p271:32:32-p272:64:64-i64:64-i128:128-f80:128-n8:16:32:64-S128"
target triple = "x86_64-pc-linux-gnu"

%struct.slurm_cred_ops_t = type { ptr, ptr, ptr, ptr, ptr, ptr }
%struct.file_bcast_msg = type { ptr, ptr, i32, i16, i16, i16, i32, ptr, i32, i64, i64, ptr, i32, i64, i32, ptr, i64 }

@ops = internal global %struct.slurm_cred_ops_t zeroinitializer, align 8

; Function Attrs: nounwind uwtable
define dso_local ptr @unpack_sbcast_cred(ptr noundef %0, ptr noundef %1, i16 noundef zeroext %2) #0 {
  %4 = alloca ptr, align 8
  %5 = alloca ptr, align 8
  %6 = alloca i16, align 2
  %7 = alloca ptr, align 8
  %8 = alloca i8, align 1
  store ptr %0, ptr %4, align 8
  store ptr %1, ptr %5, align 8
  store i16 %2, ptr %6, align 2
  call void @llvm.lifetime.start.p0(i64 8, ptr %7) #9
  %9 = load ptr, ptr %5, align 8
  store ptr %9, ptr %7, align 8
  call void @llvm.lifetime.start.p0(i64 1, ptr %8) #9
  store i8 0, ptr %8, align 1
  %10 = load ptr, ptr %7, align 8
  %11 = icmp ne ptr %10, null
  br i1 %11, label %12, label %25

12:                                               ; preds = %3
  %13 = load ptr, ptr %7, align 8
  %14 = getelementptr inbounds nuw %struct.file_bcast_msg, ptr %13, i32 0, i32 2
  %15 = load i32, ptr %14, align 8
  %16 = icmp eq i32 %15, 1
  br i1 %16, label %17, label %25

17:                                               ; preds = %12
  %18 = load ptr, ptr %7, align 8
  %19 = getelementptr inbounds nuw %struct.file_bcast_msg, ptr %18, i32 0, i32 4
  %20 = load i16, ptr %19, align 2
  %21 = zext i16 %20 to i32
  %22 = and i32 %21, 4
  %23 = icmp ne i32 %22, 0
  br i1 %23, label %25, label %24

24:                                               ; preds = %17
  store i8 1, ptr %8, align 1
  br label %25

25:                                               ; preds = %24, %17, %12, %3
  %26 = load ptr, ptr getelementptr inbounds nuw (%struct.slurm_cred_ops_t, ptr @ops, i32 0, i32 5), align 8
  %27 = load ptr, ptr %4, align 8
  %28 = load i8, ptr %8, align 1, !range !11, !noundef !12
  %29 = trunc i8 %28 to i1
  %30 = load i16, ptr %6, align 2
  %31 = call ptr %26(ptr noundef %27, i1 noundef zeroext %29, i16 noundef zeroext %30)
  call void @llvm.lifetime.end.p0(i64 1, ptr %8) #9
  call void @llvm.lifetime.end.p0(i64 8, ptr %7) #9
  ret ptr %31
}