; Function Attrs: nounwind uwtable
define dso_local ptr @unpack_sbcast_cred(ptr noundef %0, ptr noundef readonly captures(address_is_null) %1, i16 noundef zeroext %2) local_unnamed_addr #0 {
  %.not = icmp eq ptr %1, null
  br i1 %.not, label %12, label %4

4:                                                ; preds = %3
  %5 = getelementptr inbounds nuw i8, ptr %1, i64 16
  %6 = load i32, ptr %5, align 8
  %7 = icmp eq i32 %6, 1
  br i1 %7, label %8, label %12

8:                                                ; preds = %4
  %9 = getelementptr inbounds nuw i8, ptr %1, i64 22
  %10 = load i16, ptr %9, align 2
  %11 = and i16 %10, 4
  %.not7 = icmp eq i16 %11, 0
  br label %12

12:                                               ; preds = %8, %4, %3
  %.0 = phi i1 [ false, %4 ], [ false, %3 ], [ %.not7, %8 ]
  %13 = load ptr, ptr getelementptr inbounds nuw (i8, ptr @ops, i64 40), align 8
  %14 = tail call ptr %13(ptr noundef %0, i1 noundef zeroext %.0, i16 noundef zeroext %2) #11
  ret ptr %14
}